Certificate:
    Data:
        Version: 3 (0x2)
        Serial Number: 1 (0x1)
    Signature Algorithm: sha256WithRSAEncryption
        Issuer: C=CN, ST=shanghia, O=Global Google CA Inc, OU=Google 2020 CA, CN=Google 2020 CA
        Validity
            Not Before: Sep 20 16:21:11 2020 GMT
            Not After : Sep 20 16:21:11 2021 GMT
        Subject: C=CN, ST=Shanghai, O=WG Tim Inc, OU=Tim IT, CN=timroth.cn
        Subject Public Key Info:
            Public Key Algorithm: rsaEncryption
                Public-Key: (2048 bit)
                Modulus:
                    00:e8:44:87:64:1b:21:b1:b3:1e:2a:ad:c2:5b:55:
                    c3:85:a8:3a:a4:a9:44:43:25:54:bc:3c:0d:d0:d5:
                    22:1d:5c:cb:a6:e4:f5:54:94:a3:37:b5:38:12:ae:
                    3a:4d:a8:74:84:7b:b1:e3:27:2d:a1:7d:fc:fa:2a:
                    8c:e6:d7:b4:53:4b:56:44:37:68:90:a3:cd:9c:4b:
                    0e:88:c4:9f:d9:a5:fe:9e:e7:4d:25:13:cc:fd:0e:
                    dd:f4:bb:91:d8:0f:02:cf:66:44:01:a6:6b:d9:1a:
                    8e:f1:74:45:34:36:84:f3:32:e4:f2:9e:eb:a3:51:
                    04:e4:78:1d:5f:d7:64:91:54:05:3c:e9:82:33:df:
                    e8:41:ae:65:06:a0:03:79:7b:23:b8:27:66:6a:80:
                    34:b4:68:dd:c4:4d:51:90:5c:b1:e1:a0:c8:c9:bb:
                    b1:07:2e:25:91:26:63:a8:08:67:8b:1c:b9:d8:67:
                    c6:46:5c:25:5e:bb:7f:a9:9b:eb:65:0d:b6:40:0f:
                    dd:79:85:cd:3f:ae:c0:a7:ad:8c:60:ef:85:ce:ae:
                    62:57:d0:9c:6e:be:0d:8e:9c:5b:ed:09:f2:b2:57:
                    27:99:96:39:9b:1e:7a:62:b4:bf:70:1b:13:e8:db:
                    1f:c9:d6:39:a5:5a:a9:c7:2e:3c:95:31:59:eb:dc:
                    fd:e5
                Exponent: 65537 (0x10001)
        X509v3 extensions:
            X509v3 Basic Constraints: 
                CA:FALSE
            X509v3 Subject Alternative Name: 
                DNS:timroth.cn, DNS:www.timroth.cn, DNS:timroth2020.cn
    Signature Algorithm: sha256WithRSAEncryption
         2d:21:87:29:79:15:1f:07:87:4d:45:63:09:6a:04:ba:7d:34:
         54:01:88:0e:8e:db:4c:33:2b:ee:dc:a7:30:69:42:71:36:f7:
         f0:e1:49:2d:c7:1f:07:3d:b1:30:63:8b:a0:da:89:43:ec:11:
         d6:bc:6d:7c:ae:cc:9a:dd:fa:0f:e7:10:e9:7b:e1:b4:c1:7a:
         28:1f:0f:05:ea:24:9a:71:0a:81:8f:58:4e:d3:02:60:f7:60:
         3c:b4:cc:59:27:57:07:df:fc:62:91:c4:9d:79:e7:8f:22:62:
         8f:14:a3:8a:52:0d:dc:a4:75:fa:18:f7:b7:a7:fd:d6:47:fc:
         6e:28:ff:1a:a6:23:55:f3:53:cf:78:4f:9d:76:6a:ea:0f:c8:
         cb:2e:a7:1b:b8:b6:28:c9:54:6c:c1:fa:b0:29:ea:b1:41:e0:
         10:c2:7a:28:f2:79:52:02:91:11:5f:db:e5:a7:f8:8d:e3:dd:
         d7:00:5f:29:b0:b6:c7:fd:ff:3c:27:cf:01:0e:97:5a:be:a9:
         7c:d3:23:1e:ee:74:89:c2:52:87:b9:e4:d4:fa:7d:02:a8:ca:
         54:39:98:9c:5c:1d:e2:35:c9:45:fe:f2:9a:40:5a:d2:8b:b7:
         fc:05:db:78:20:c3:fa:8a:5f:1d:08:be:39:3e:3d:be:1d:2d:
         50:98:95:c4
-----BEGIN CERTIFICATE-----
MIIDizCCAnOgAwIBAgIBATANBgkqhkiG9w0BAQsFADBxMQswCQYDVQQGEwJDTjER
MA8GA1UECAwIc2hhbmdoaWExHTAbBgNVBAoMFEdsb2JhbCBHb29nbGUgQ0EgSW5j
MRcwFQYDVQQLDA5Hb29nbGUgMjAyMCBDQTEXMBUGA1UEAwwOR29vZ2xlIDIwMjAg
Q0EwHhcNMjAwOTIwMTYyMTExWhcNMjEwOTIwMTYyMTExWjBbMQswCQYDVQQGEwJD
TjERMA8GA1UECAwIU2hhbmdoYWkxEzARBgNVBAoMCldHIFRpbSBJbmMxDzANBgNV
BAsMBlRpbSBJVDETMBEGA1UEAwwKdGltcm90aC5jbjCCASIwDQYJKoZIhvcNAQEB
BQADggEPADCCAQoCggEBAOhEh2QbIbGzHiqtwltVw4WoOqSpREMlVLw8DdDVIh1c
y6bk9VSUoze1OBKuOk2odIR7seMnLaF9/PoqjObXtFNLVkQ3aJCjzZxLDojEn9ml
/p7nTSUTzP0O3fS7kdgPAs9mRAGma9kajvF0RTQ2hPMy5PKe66NRBOR4HV/XZJFU
BTzpgjPf6EGuZQagA3l7I7gnZmqANLRo3cRNUZBcseGgyMm7sQcuJZEmY6gIZ4sc
udhnxkZcJV67f6mb62UNtkAP3XmFzT+uwKetjGDvhc6uYlfQnG6+DY6cW+0J8rJX
J5mWOZseemK0v3AbE+jbH8nWOaVaqccuPJUxWevc/eUCAwEAAaNEMEIwCQYDVR0T
BAIwADA1BgNVHREELjAsggp0aW1yb3RoLmNugg53d3cudGltcm90aC5jboIOdGlt
cm90aDIwMjAuY24wDQYJKoZIhvcNAQELBQADggEBAC0hhyl5FR8Hh01FYwlqBLp9
NFQBiA6O20wzK+7cpzBpQnE29/DhSS3HHwc9sTBji6DaiUPsEda8bXyuzJrd+g/n
EOl74bTBeigfDwXqJJpxCoGPWE7TAmD3YDy0zFknVwff/GKRxJ15548iYo8Uo4pS
DdykdfoY97en/dZH/G4o/xqmI1XzU894T512auoPyMsupxu4tijJVGzB+rAp6rFB
4BDCeijyeVICkRFf2+Wn+I3j3dcAXymwtsf9/zwnzwEOl1q+qXzTIx7udInCUoe5
5NT6fQKoylQ5mJxcHeI1yUX+8ppAWtKLt/wF23ggw/qKXx0Ivjk+Pb4dLVCYlcQ=
-----END CERTIFICATE-----
Certificate:
    Data:
        Version: 3 (0x2)
        Serial Number: 2 (0x2)
    Signature Algorithm: sha256WithRSAEncryption
        Issuer: C=CN, ST=beijing, O=Global Google CA Inc, OU=Root CA, CN=Global Google Root CA
        Validity
            Not Before: Sep 20 15:59:51 2020 GMT
            Not After : Sep 20 15:59:51 2021 GMT
        Subject: C=CN, ST=shanghia, O=Global Google CA Inc, OU=Google 2020 CA, CN=Google 2020 CA
        Subject Public Key Info:
            Public Key Algorithm: rsaEncryption
                Public-Key: (2048 bit)
                Modulus:
                    00:af:d8:cc:8d:77:0a:ad:75:d0:c9:84:40:2b:0e:
                    40:99:d0:6b:51:87:d5:96:76:09:6e:c1:d7:15:86:
                    32:96:86:30:9c:38:53:a1:8f:2b:00:3d:db:6b:79:
                    09:d8:30:7a:1d:88:32:49:de:61:9d:f4:81:5c:68:
                    1e:34:6d:82:fb:51:fc:23:55:bd:30:b5:d1:28:8b:
                    76:6c:ef:66:42:65:6e:86:50:22:f5:f2:af:42:83:
                    20:31:37:91:c9:27:26:bf:c3:c5:df:41:c5:4f:ee:
                    f1:de:27:9b:10:ca:65:f3:42:fa:cc:35:df:db:b4:
                    75:3e:bf:cd:3e:c0:c6:34:80:74:1c:c1:5a:a7:31:
                    25:d8:dd:c5:49:c0:ef:5f:e1:8b:5a:99:87:74:51:
                    9c:95:4d:4d:71:36:5a:68:c3:f5:47:c9:77:67:09:
                    91:48:48:5b:90:04:1f:3e:cf:07:b4:f9:4f:2a:94:
                    b0:4c:af:18:7c:df:b4:35:5c:8c:74:01:6b:62:5d:
                    33:2d:6f:bf:a1:b9:bf:71:cc:fc:00:05:89:9b:09:
                    06:ee:cf:4d:9d:8c:7a:db:38:6f:14:b2:ca:57:18:
                    ed:ee:cc:84:fb:9b:8d:45:b1:6c:a8:8d:4b:43:dc:
                    33:98:10:df:bd:ec:b4:2b:fa:06:5c:ca:da:bd:58:
                    85:d9
                Exponent: 65537 (0x10001)
        X509v3 extensions:
            X509v3 Basic Constraints: 
                CA:TRUE
    Signature Algorithm: sha256WithRSAEncryption
         61:f0:5f:35:bf:2f:79:5d:9e:83:2c:38:ac:4d:52:58:8b:8b:
         e9:8c:66:b2:23:8d:6d:a4:52:06:a4:bf:fe:74:0b:fe:66:f2:
         3d:51:7d:5c:48:cd:fe:0b:a4:5e:47:05:91:02:1d:03:34:23:
         2b:a9:92:07:f1:7d:f7:1b:d4:3c:5b:5a:86:83:80:8d:b9:64:
         91:24:6d:8e:ff:bd:19:a6:4b:24:e2:5f:c3:65:49:c6:a6:4f:
         28:7b:12:47:0a:83:29:f3:c3:b0:77:6c:15:0f:5b:b8:c6:81:
         dd:0b:c0:35:71:4f:01:09:33:fb:ce:cf:55:aa:ad:5c:99:ad:
         9b:96:3e:b8:50:9e:0e:6f:8d:d5:72:10:8f:3d:d0:ba:bc:9b:
         73:ea:46:ee:69:d4:80:24:dd:da:36:43:cd:04:fc:7d:97:42:
         ed:66:e3:5a:6b:4a:72:da:67:8a:cd:20:bc:af:10:c2:b3:23:
         d5:dc:58:28:03:71:1d:36:7e:a5:59:e2:45:5b:71:01:0b:f8:
         63:d0:0c:1b:80:f8:76:66:1b:9f:bc:35:e1:7b:2f:fb:83:70:
         89:0c:ed:f6:34:eb:08:fd:62:27:25:64:80:72:7b:1b:b1:32:
         cc:fc:19:45:e8:b8:c5:61:ff:13:a9:e4:90:01:40:1c:b3:08:
         28:ff:1b:c9
-----BEGIN CERTIFICATE-----
MIIDbDCCAlSgAwIBAgIBAjANBgkqhkiG9w0BAQsFADBwMQswCQYDVQQGEwJDTjEQ
MA4GA1UECAwHYmVpamluZzEdMBsGA1UECgwUR2xvYmFsIEdvb2dsZSBDQSBJbmMx
EDAOBgNVBAsMB1Jvb3QgQ0ExHjAcBgNVBAMMFUdsb2JhbCBHb29nbGUgUm9vdCBD
QTAeFw0yMDA5MjAxNTU5NTFaFw0yMTA5MjAxNTU5NTFaMHExCzAJBgNVBAYTAkNO
MREwDwYDVQQIDAhzaGFuZ2hpYTEdMBsGA1UECgwUR2xvYmFsIEdvb2dsZSBDQSBJ
bmMxFzAVBgNVBAsMDkdvb2dsZSAyMDIwIENBMRcwFQYDVQQDDA5Hb29nbGUgMjAy
MCBDQTCCASIwDQYJKoZIhvcNAQEBBQADggEPADCCAQoCggEBAK/YzI13Cq110MmE
QCsOQJnQa1GH1ZZ2CW7B1xWGMpaGMJw4U6GPKwA922t5Cdgweh2IMkneYZ30gVxo
HjRtgvtR/CNVvTC10SiLdmzvZkJlboZQIvXyr0KDIDE3kcknJr/Dxd9BxU/u8d4n
mxDKZfNC+sw139u0dT6/zT7AxjSAdBzBWqcxJdjdxUnA71/hi1qZh3RRnJVNTXE2
WmjD9UfJd2cJkUhIW5AEHz7PB7T5TyqUsEyvGHzftDVcjHQBa2JdMy1vv6G5v3HM
/AAFiZsJBu7PTZ2Mets4bxSyylcY7e7MhPubjUWxbKiNS0PcM5gQ373stCv6BlzK
2r1YhdkCAwEAAaMQMA4wDAYDVR0TBAUwAwEB/zANBgkqhkiG9w0BAQsFAAOCAQEA
YfBfNb8veV2egyw4rE1SWIuL6YxmsiONbaRSBqS//nQL/mbyPVF9XEjN/gukXkcF
kQIdAzQjK6mSB/F99xvUPFtahoOAjblkkSRtjv+9GaZLJOJfw2VJxqZPKHsSRwqD
KfPDsHdsFQ9buMaB3QvANXFPAQkz+87PVaqtXJmtm5Y+uFCeDm+N1XIQjz3Quryb
c+pG7mnUgCTd2jZDzQT8fZdC7WbjWmtKctpnis0gvK8QwrMj1dxYKANxHTZ+pVni
RVtxAQv4Y9AMG4D4dmYbn7w14Xsv+4NwiQzt9jTrCP1iJyVkgHJ7G7EyzPwZRei4
xWH/E6nkkAFAHLMIKP8byQ==
-----END CERTIFICATE-----
Certificate:
    Data:
        Version: 3 (0x2)
        Serial Number: 1 (0x1)
    Signature Algorithm: sha256WithRSAEncryption
        Issuer: C=CN, ST=beijing, O=Global Google CA Inc, OU=Root CA, CN=Global Google Root CA
        Validity
            Not Before: Sep 20 15:24:03 2020 GMT
            Not After : Sep 20 15:24:03 2021 GMT
        Subject: C=CN, ST=beijing, O=Global Google CA Inc, OU=Root CA, CN=Global Google Root CA
        Subject Public Key Info:
            Public Key Algorithm: rsaEncryption
                Public-Key: (2048 bit)
                Modulus:
                    00:97:c4:78:5b:60:2a:66:fd:4c:0d:9c:08:77:4b:
                    74:cc:7a:88:97:d7:68:df:40:ee:81:7c:91:19:01:
                    b1:0b:f4:59:b8:10:9f:93:b7:20:8e:47:96:b0:55:
                    e3:2d:9d:55:7c:9f:7b:44:44:d3:7d:0b:6e:f0:c1:
                    c1:d5:22:00:3d:4b:00:19:0b:e4:4c:64:04:ed:14:
                    d9:91:5f:3e:15:17:80:37:73:2f:e7:bd:21:53:33:
                    bc:f0:a2:a3:07:3a:04:55:1b:17:5e:52:81:28:67:
                    0b:fd:99:92:96:37:99:60:d1:34:6a:af:cd:f8:2b:
                    9e:0f:6e:f4:c8:7b:73:6d:7a:0c:b9:14:fd:41:b9:
                    75:3a:08:5a:6f:56:ba:22:42:70:3c:2c:37:b1:63:
                    e1:71:57:d5:46:c0:72:9d:95:98:32:8f:4d:02:69:
                    b1:c6:10:ea:47:07:8a:29:48:fe:8f:86:01:11:f4:
                    00:85:36:09:8e:7e:d9:8d:11:74:83:f6:6e:3e:04:
                    16:30:73:60:d2:af:f1:71:d4:7c:67:09:15:c4:de:
                    ff:50:2b:40:c0:9c:a0:04:05:62:a6:7e:c7:28:a6:
                    2d:b9:46:fe:25:0a:be:78:21:74:4f:af:bc:ca:c2:
                    bf:88:20:fe:93:b1:0c:4b:fe:19:1d:e4:9d:a8:c1:
                    c8:cb
                Exponent: 65537 (0x10001)
        X509v3 extensions:
            X509v3 Basic Constraints: 
                CA:TRUE
    Signature Algorithm: sha256WithRSAEncryption
         53:77:fd:69:2d:fb:9c:ac:27:9f:6e:e0:80:45:8c:06:bd:ef:
         ff:ea:d9:56:b1:58:22:25:66:e3:ef:3b:8c:28:15:b1:db:ec:
         29:47:86:25:16:9e:1b:6e:25:0c:c1:30:ea:79:89:87:7b:b4:
         8a:74:79:55:ee:5d:3a:a9:40:1f:03:b7:35:ed:e7:1d:b6:3c:
         71:e9:98:45:d6:98:e8:d5:50:ae:a1:58:58:bc:5c:1f:9d:49:
         e0:ae:7b:4d:a7:ff:16:78:1d:0c:15:a7:ae:96:3c:78:a0:aa:
         59:36:02:db:b4:11:fb:eb:11:fc:45:17:22:66:f2:44:47:c3:
         6d:0b:fc:8b:85:60:66:20:7a:00:f9:6a:ba:56:8e:18:61:68:
         39:0c:48:f9:4e:c2:0c:f5:af:bb:f8:b0:c0:4a:09:07:f2:83:
         80:7a:dd:65:ae:16:53:de:d0:cd:c3:30:1d:24:a3:b3:eb:9b:
         79:1a:c4:97:e2:28:8c:b3:62:3e:bd:f0:da:d8:3c:40:aa:71:
         62:d3:09:bd:72:1d:d4:12:04:27:9f:54:b6:1f:87:b4:c3:dc:
         80:c4:1b:f2:d7:c5:d1:f6:d6:d8:79:8a:20:83:4d:a1:d2:df:
         c8:f8:e3:9b:61:70:f7:2c:8b:64:b7:58:b4:ab:6f:89:25:e8:
         1f:ac:4e:09
-----BEGIN CERTIFICATE-----
MIIDazCCAlOgAwIBAgIBATANBgkqhkiG9w0BAQsFADBwMQswCQYDVQQGEwJDTjEQ
MA4GA1UECAwHYmVpamluZzEdMBsGA1UECgwUR2xvYmFsIEdvb2dsZSBDQSBJbmMx
EDAOBgNVBAsMB1Jvb3QgQ0ExHjAcBgNVBAMMFUdsb2JhbCBHb29nbGUgUm9vdCBD
QTAeFw0yMDA5MjAxNTI0MDNaFw0yMTA5MjAxNTI0MDNaMHAxCzAJBgNVBAYTAkNO
MRAwDgYDVQQIDAdiZWlqaW5nMR0wGwYDVQQKDBRHbG9iYWwgR29vZ2xlIENBIElu
YzEQMA4GA1UECwwHUm9vdCBDQTEeMBwGA1UEAwwVR2xvYmFsIEdvb2dsZSBSb290
IENBMIIBIjANBgkqhkiG9w0BAQEFAAOCAQ8AMIIBCgKCAQEAl8R4W2AqZv1MDZwI
d0t0zHqIl9do30DugXyRGQGxC/RZuBCfk7cgjkeWsFXjLZ1VfJ97RETTfQtu8MHB
1SIAPUsAGQvkTGQE7RTZkV8+FReAN3Mv570hUzO88KKjBzoEVRsXXlKBKGcL/ZmS
ljeZYNE0aq/N+CueD270yHtzbXoMuRT9Qbl1Oghab1a6IkJwPCw3sWPhcVfVRsBy
nZWYMo9NAmmxxhDqRweKKUj+j4YBEfQAhTYJjn7ZjRF0g/ZuPgQWMHNg0q/xcdR8
ZwkVxN7/UCtAwJygBAVipn7HKKYtuUb+JQq+eCF0T6+8ysK/iCD+k7EMS/4ZHeSd
qMHIywIDAQABoxAwDjAMBgNVHRMEBTADAQH/MA0GCSqGSIb3DQEBCwUAA4IBAQBT
d/1pLfucrCefbuCARYwGve//6tlWsVgiJWbj7zuMKBWx2+wpR4YlFp4bbiUMwTDq
eYmHe7SKdHlV7l06qUAfA7c17ecdtjxx6ZhF1pjo1VCuoVhYvFwfnUngrntNp/8W
eB0MFaeuljx4oKpZNgLbtBH76xH8RRciZvJER8NtC/yLhWBmIHoA+Wq6Vo4YYWg5
DEj5TsIM9a+7+LDASgkH8oOAet1lrhZT3tDNwzAdJKOz65t5GsSX4iiMs2I+vfDa
2DxAqnFi0wm9ch3UEgQnn1S2H4e0w9yAxBvy18XR9tbYeYogg02h0t/I+OObYXD3
LItkt1i0q2+JJegfrE4J
-----END CERTIFICATE-----
