Certificate:
    Data:
        Version: 3 (0x2)
        Serial Number: 2 (0x2)
    Signature Algorithm: sha256WithRSAEncryption
        Issuer: C=CN, ST=beijing, O=Global Google CA Inc, OU=Root CA, CN=Global Google Root CA
        Validity
            Not Before: Sep 20 15:59:51 2020 GMT
            Not After : Sep 20 15:59:51 2021 GMT
        Subject: C=CN, ST=shanghia, O=Global Google CA Inc, OU=Google 2020 CA, CN=Google 2020 CA
        Subject Public Key Info:
            Public Key Algorithm: rsaEncryption
                Public-Key: (2048 bit)
                Modulus:
                    00:af:d8:cc:8d:77:0a:ad:75:d0:c9:84:40:2b:0e:
                    40:99:d0:6b:51:87:d5:96:76:09:6e:c1:d7:15:86:
                    32:96:86:30:9c:38:53:a1:8f:2b:00:3d:db:6b:79:
                    09:d8:30:7a:1d:88:32:49:de:61:9d:f4:81:5c:68:
                    1e:34:6d:82:fb:51:fc:23:55:bd:30:b5:d1:28:8b:
                    76:6c:ef:66:42:65:6e:86:50:22:f5:f2:af:42:83:
                    20:31:37:91:c9:27:26:bf:c3:c5:df:41:c5:4f:ee:
                    f1:de:27:9b:10:ca:65:f3:42:fa:cc:35:df:db:b4:
                    75:3e:bf:cd:3e:c0:c6:34:80:74:1c:c1:5a:a7:31:
                    25:d8:dd:c5:49:c0:ef:5f:e1:8b:5a:99:87:74:51:
                    9c:95:4d:4d:71:36:5a:68:c3:f5:47:c9:77:67:09:
                    91:48:48:5b:90:04:1f:3e:cf:07:b4:f9:4f:2a:94:
                    b0:4c:af:18:7c:df:b4:35:5c:8c:74:01:6b:62:5d:
                    33:2d:6f:bf:a1:b9:bf:71:cc:fc:00:05:89:9b:09:
                    06:ee:cf:4d:9d:8c:7a:db:38:6f:14:b2:ca:57:18:
                    ed:ee:cc:84:fb:9b:8d:45:b1:6c:a8:8d:4b:43:dc:
                    33:98:10:df:bd:ec:b4:2b:fa:06:5c:ca:da:bd:58:
                    85:d9
                Exponent: 65537 (0x10001)
        X509v3 extensions:
            X509v3 Basic Constraints: 
                CA:TRUE
    Signature Algorithm: sha256WithRSAEncryption
         61:f0:5f:35:bf:2f:79:5d:9e:83:2c:38:ac:4d:52:58:8b:8b:
         e9:8c:66:b2:23:8d:6d:a4:52:06:a4:bf:fe:74:0b:fe:66:f2:
         3d:51:7d:5c:48:cd:fe:0b:a4:5e:47:05:91:02:1d:03:34:23:
         2b:a9:92:07:f1:7d:f7:1b:d4:3c:5b:5a:86:83:80:8d:b9:64:
         91:24:6d:8e:ff:bd:19:a6:4b:24:e2:5f:c3:65:49:c6:a6:4f:
         28:7b:12:47:0a:83:29:f3:c3:b0:77:6c:15:0f:5b:b8:c6:81:
         dd:0b:c0:35:71:4f:01:09:33:fb:ce:cf:55:aa:ad:5c:99:ad:
         9b:96:3e:b8:50:9e:0e:6f:8d:d5:72:10:8f:3d:d0:ba:bc:9b:
         73:ea:46:ee:69:d4:80:24:dd:da:36:43:cd:04:fc:7d:97:42:
         ed:66:e3:5a:6b:4a:72:da:67:8a:cd:20:bc:af:10:c2:b3:23:
         d5:dc:58:28:03:71:1d:36:7e:a5:59:e2:45:5b:71:01:0b:f8:
         63:d0:0c:1b:80:f8:76:66:1b:9f:bc:35:e1:7b:2f:fb:83:70:
         89:0c:ed:f6:34:eb:08:fd:62:27:25:64:80:72:7b:1b:b1:32:
         cc:fc:19:45:e8:b8:c5:61:ff:13:a9:e4:90:01:40:1c:b3:08:
         28:ff:1b:c9
-----BEGIN CERTIFICATE-----
MIIDbDCCAlSgAwIBAgIBAjANBgkqhkiG9w0BAQsFADBwMQswCQYDVQQGEwJDTjEQ
MA4GA1UECAwHYmVpamluZzEdMBsGA1UECgwUR2xvYmFsIEdvb2dsZSBDQSBJbmMx
EDAOBgNVBAsMB1Jvb3QgQ0ExHjAcBgNVBAMMFUdsb2JhbCBHb29nbGUgUm9vdCBD
QTAeFw0yMDA5MjAxNTU5NTFaFw0yMTA5MjAxNTU5NTFaMHExCzAJBgNVBAYTAkNO
MREwDwYDVQQIDAhzaGFuZ2hpYTEdMBsGA1UECgwUR2xvYmFsIEdvb2dsZSBDQSBJ
bmMxFzAVBgNVBAsMDkdvb2dsZSAyMDIwIENBMRcwFQYDVQQDDA5Hb29nbGUgMjAy
MCBDQTCCASIwDQYJKoZIhvcNAQEBBQADggEPADCCAQoCggEBAK/YzI13Cq110MmE
QCsOQJnQa1GH1ZZ2CW7B1xWGMpaGMJw4U6GPKwA922t5Cdgweh2IMkneYZ30gVxo
HjRtgvtR/CNVvTC10SiLdmzvZkJlboZQIvXyr0KDIDE3kcknJr/Dxd9BxU/u8d4n
mxDKZfNC+sw139u0dT6/zT7AxjSAdBzBWqcxJdjdxUnA71/hi1qZh3RRnJVNTXE2
WmjD9UfJd2cJkUhIW5AEHz7PB7T5TyqUsEyvGHzftDVcjHQBa2JdMy1vv6G5v3HM
/AAFiZsJBu7PTZ2Mets4bxSyylcY7e7MhPubjUWxbKiNS0PcM5gQ373stCv6BlzK
2r1YhdkCAwEAAaMQMA4wDAYDVR0TBAUwAwEB/zANBgkqhkiG9w0BAQsFAAOCAQEA
YfBfNb8veV2egyw4rE1SWIuL6YxmsiONbaRSBqS//nQL/mbyPVF9XEjN/gukXkcF
kQIdAzQjK6mSB/F99xvUPFtahoOAjblkkSRtjv+9GaZLJOJfw2VJxqZPKHsSRwqD
KfPDsHdsFQ9buMaB3QvANXFPAQkz+87PVaqtXJmtm5Y+uFCeDm+N1XIQjz3Quryb
c+pG7mnUgCTd2jZDzQT8fZdC7WbjWmtKctpnis0gvK8QwrMj1dxYKANxHTZ+pVni
RVtxAQv4Y9AMG4D4dmYbn7w14Xsv+4NwiQzt9jTrCP1iJyVkgHJ7G7EyzPwZRei4
xWH/E6nkkAFAHLMIKP8byQ==
-----END CERTIFICATE-----
