Certificate:
    Data:
        Version: 3 (0x2)
        Serial Number: 1 (0x1)
    Signature Algorithm: sha256WithRSAEncryption
        Issuer: C=CN, ST=shanghia, O=Global Google CA Inc, OU=Google 2020 CA, CN=Google 2020 CA
        Validity
            Not Before: Sep 20 16:21:11 2020 GMT
            Not After : Sep 20 16:21:11 2021 GMT
        Subject: C=CN, ST=Shanghai, O=WG Tim Inc, OU=Tim IT, CN=timroth.cn
        Subject Public Key Info:
            Public Key Algorithm: rsaEncryption
                Public-Key: (2048 bit)
                Modulus:
                    00:e8:44:87:64:1b:21:b1:b3:1e:2a:ad:c2:5b:55:
                    c3:85:a8:3a:a4:a9:44:43:25:54:bc:3c:0d:d0:d5:
                    22:1d:5c:cb:a6:e4:f5:54:94:a3:37:b5:38:12:ae:
                    3a:4d:a8:74:84:7b:b1:e3:27:2d:a1:7d:fc:fa:2a:
                    8c:e6:d7:b4:53:4b:56:44:37:68:90:a3:cd:9c:4b:
                    0e:88:c4:9f:d9:a5:fe:9e:e7:4d:25:13:cc:fd:0e:
                    dd:f4:bb:91:d8:0f:02:cf:66:44:01:a6:6b:d9:1a:
                    8e:f1:74:45:34:36:84:f3:32:e4:f2:9e:eb:a3:51:
                    04:e4:78:1d:5f:d7:64:91:54:05:3c:e9:82:33:df:
                    e8:41:ae:65:06:a0:03:79:7b:23:b8:27:66:6a:80:
                    34:b4:68:dd:c4:4d:51:90:5c:b1:e1:a0:c8:c9:bb:
                    b1:07:2e:25:91:26:63:a8:08:67:8b:1c:b9:d8:67:
                    c6:46:5c:25:5e:bb:7f:a9:9b:eb:65:0d:b6:40:0f:
                    dd:79:85:cd:3f:ae:c0:a7:ad:8c:60:ef:85:ce:ae:
                    62:57:d0:9c:6e:be:0d:8e:9c:5b:ed:09:f2:b2:57:
                    27:99:96:39:9b:1e:7a:62:b4:bf:70:1b:13:e8:db:
                    1f:c9:d6:39:a5:5a:a9:c7:2e:3c:95:31:59:eb:dc:
                    fd:e5
                Exponent: 65537 (0x10001)
        X509v3 extensions:
            X509v3 Basic Constraints: 
                CA:FALSE
            X509v3 Subject Alternative Name: 
                DNS:timroth.cn, DNS:www.timroth.cn, DNS:timroth2020.cn
    Signature Algorithm: sha256WithRSAEncryption
         2d:21:87:29:79:15:1f:07:87:4d:45:63:09:6a:04:ba:7d:34:
         54:01:88:0e:8e:db:4c:33:2b:ee:dc:a7:30:69:42:71:36:f7:
         f0:e1:49:2d:c7:1f:07:3d:b1:30:63:8b:a0:da:89:43:ec:11:
         d6:bc:6d:7c:ae:cc:9a:dd:fa:0f:e7:10:e9:7b:e1:b4:c1:7a:
         28:1f:0f:05:ea:24:9a:71:0a:81:8f:58:4e:d3:02:60:f7:60:
         3c:b4:cc:59:27:57:07:df:fc:62:91:c4:9d:79:e7:8f:22:62:
         8f:14:a3:8a:52:0d:dc:a4:75:fa:18:f7:b7:a7:fd:d6:47:fc:
         6e:28:ff:1a:a6:23:55:f3:53:cf:78:4f:9d:76:6a:ea:0f:c8:
         cb:2e:a7:1b:b8:b6:28:c9:54:6c:c1:fa:b0:29:ea:b1:41:e0:
         10:c2:7a:28:f2:79:52:02:91:11:5f:db:e5:a7:f8:8d:e3:dd:
         d7:00:5f:29:b0:b6:c7:fd:ff:3c:27:cf:01:0e:97:5a:be:a9:
         7c:d3:23:1e:ee:74:89:c2:52:87:b9:e4:d4:fa:7d:02:a8:ca:
         54:39:98:9c:5c:1d:e2:35:c9:45:fe:f2:9a:40:5a:d2:8b:b7:
         fc:05:db:78:20:c3:fa:8a:5f:1d:08:be:39:3e:3d:be:1d:2d:
         50:98:95:c4
-----BEGIN CERTIFICATE-----
MIIDizCCAnOgAwIBAgIBATANBgkqhkiG9w0BAQsFADBxMQswCQYDVQQGEwJDTjER
MA8GA1UECAwIc2hhbmdoaWExHTAbBgNVBAoMFEdsb2JhbCBHb29nbGUgQ0EgSW5j
MRcwFQYDVQQLDA5Hb29nbGUgMjAyMCBDQTEXMBUGA1UEAwwOR29vZ2xlIDIwMjAg
Q0EwHhcNMjAwOTIwMTYyMTExWhcNMjEwOTIwMTYyMTExWjBbMQswCQYDVQQGEwJD
TjERMA8GA1UECAwIU2hhbmdoYWkxEzARBgNVBAoMCldHIFRpbSBJbmMxDzANBgNV
BAsMBlRpbSBJVDETMBEGA1UEAwwKdGltcm90aC5jbjCCASIwDQYJKoZIhvcNAQEB
BQADggEPADCCAQoCggEBAOhEh2QbIbGzHiqtwltVw4WoOqSpREMlVLw8DdDVIh1c
y6bk9VSUoze1OBKuOk2odIR7seMnLaF9/PoqjObXtFNLVkQ3aJCjzZxLDojEn9ml
/p7nTSUTzP0O3fS7kdgPAs9mRAGma9kajvF0RTQ2hPMy5PKe66NRBOR4HV/XZJFU
BTzpgjPf6EGuZQagA3l7I7gnZmqANLRo3cRNUZBcseGgyMm7sQcuJZEmY6gIZ4sc
udhnxkZcJV67f6mb62UNtkAP3XmFzT+uwKetjGDvhc6uYlfQnG6+DY6cW+0J8rJX
J5mWOZseemK0v3AbE+jbH8nWOaVaqccuPJUxWevc/eUCAwEAAaNEMEIwCQYDVR0T
BAIwADA1BgNVHREELjAsggp0aW1yb3RoLmNugg53d3cudGltcm90aC5jboIOdGlt
cm90aDIwMjAuY24wDQYJKoZIhvcNAQELBQADggEBAC0hhyl5FR8Hh01FYwlqBLp9
NFQBiA6O20wzK+7cpzBpQnE29/DhSS3HHwc9sTBji6DaiUPsEda8bXyuzJrd+g/n
EOl74bTBeigfDwXqJJpxCoGPWE7TAmD3YDy0zFknVwff/GKRxJ15548iYo8Uo4pS
DdykdfoY97en/dZH/G4o/xqmI1XzU894T512auoPyMsupxu4tijJVGzB+rAp6rFB
4BDCeijyeVICkRFf2+Wn+I3j3dcAXymwtsf9/zwnzwEOl1q+qXzTIx7udInCUoe5
5NT6fQKoylQ5mJxcHeI1yUX+8ppAWtKLt/wF23ggw/qKXx0Ivjk+Pb4dLVCYlcQ=
-----END CERTIFICATE-----
